(dp0
S'options'
p1
(dp2
S'cut'
p3
I5
sS'hires'
p4
I01
sS'buffer'
p5
I1
sS'translate'
p6
I00
sS'antialias'
p7
I01
sS'height'
p8
I1024
sS'width'
p9
I1024
sS'noise'
p10
I25
sS'blur'
p11
I0
sS'google_key'
p12
V
p13
sS'spread'
p14
I20
ss.