(dp0
S'options'
p1
(dp2
S'cut'
p3
I5
sS'hires'
p4
I01
sS'google_key'
p5
V
p6
sS'buffer'
p7
I1
sS'antialias'
p8
I01
sS'height'
p9
I1024
sS'width'
p10
I1024
sS'noise'
p11
I25
sS'blur'
p12
I0
sS'translate'
p13
I00
sS'spread'
p14
I20
ss.